; Function Attrs: mustprogress nofree norecurse nosync nounwind willreturn memory(argmem: read) uwtable
define noundef i64 @_ZNK12colvarmodule13num_variablesEv(ptr nocapture noundef nonnull readonly align 8 dereferenceable(616) %0) local_unnamed_addr #15 align 2 {
  %2 = getelementptr inbounds i8, ptr %0, i64 40
  %3 = getelementptr inbounds i8, ptr %0, i64 48
  %4 = load ptr, ptr %3, align 8
  %5 = load ptr, ptr %2, align 8
  %6 = ptrtoint ptr %4 to i64
  %7 = ptrtoint ptr %5 to i64
  %8 = sub i64 %6, %7
  %9 = ashr exact i64 %8, 3
  ret i64 %9
}